(lp0
S't3_7td7gf'
p1
aS't3_7tcvtf'
p2
aS't3_7tczyj'
p3
aS't3_7tctwx'
p4
aS't3_7td2sc'
p5
aS't3_7tdchg'
p6
aS't3_7td7yn'
p7
aS't3_7tcmcr'
p8
aS't3_7tcqi8'
p9
aS't3_7tcsmf'
p10
aS't3_7tdh9q'
p11
aS't3_7tcpcn'
p12
aS't3_7tcnvx'
p13
aS't3_7tcplk'
p14
aS't3_7tcsg5'
p15
aS't3_7tchgf'
p16
aS't3_7tcju8'
p17
aS't3_7tcj0i'
p18
aS't3_7td998'
p19
aS't3_7tcxv3'
p20
a.